; Function Attrs: mustprogress nobuiltin nounwind allocsize(0) uwtable
define dso_local noalias noundef ptr @_ZnwmSt11align_val_tRKSt9nothrow_t(i64 noundef %0, i64 noundef %1, ptr noundef nonnull align 1 dereferenceable(1) %2) local_unnamed_addr #1 personality ptr @__gxx_personality_v0 {
  %4 = tail call noalias ptr @aligned_alloc(i64 noundef %1, i64 noundef %0) #16
  call void @llvm.assume(i1 true) [ "align"(ptr %4, i64 %1) ]
  %.not.i = icmp eq ptr %4, null
  br i1 %.not.i, label %5, label %_ZL14alignedNewImplILb1EEPvmSt11align_val_t.exit, !prof !4

5:                                                ; preds = %3
  %6 = invoke fastcc noundef ptr @_ZL9handleOOMmb(i64 noundef %0, i1 noundef zeroext true)
          to label %_ZL14alignedNewImplILb1EEPvmSt11align_val_t.exit unwind label %7

7:                                                ; preds = %5
  %8 = landingpad { ptr, i32 }
          catch ptr null
  %9 = extractvalue { ptr, i32 } %8, 0
  tail call void @__clang_call_terminate(ptr %9) #17
  unreachable

_ZL14alignedNewImplILb1EEPvmSt11align_val_t.exit: ; preds = %3, %5
  %.0.i = phi ptr [ %4, %3 ], [ %6, %5 ]
  ret ptr %.0.i
}